target datalayout = "e-m:e-p270:32:32-p271:32:32-p272:64:64-i64:64-i128:128-f80:128-n8:16:32:64-S128"
target triple = "x86_64-pc-linux-gnu"

%struct.tm = type { i32, i32, i32, i32, i32, i32, i32, i32, i32, i64, ptr }
%struct.interval = type { i64, i64 }

; Function Attrs: nounwind uwtable
define internal i32 @interval2tm(i64 %0, i64 %1, ptr noundef %2, ptr noundef %3) #0 {
  %5 = alloca %struct.interval, align 8
  %6 = alloca ptr, align 8
  %7 = alloca ptr, align 8
  %8 = alloca i64, align 8
  %9 = getelementptr inbounds nuw { i64, i64 }, ptr %5, i32 0, i32 0
  store i64 %0, ptr %9, align 8
  %10 = getelementptr inbounds nuw { i64, i64 }, ptr %5, i32 0, i32 1
  store i64 %1, ptr %10, align 8
  store ptr %2, ptr %6, align 8
  store ptr %3, ptr %7, align 8
  call void @llvm.lifetime.start.p0(i64 8, ptr %8) #8
  %11 = getelementptr inbounds nuw %struct.interval, ptr %5, i32 0, i32 1
  %12 = load i64, ptr %11, align 8
  %13 = icmp ne i64 %12, 0
  br i1 %13, label %14, label %27

14:                                               ; preds = %4
  %15 = getelementptr inbounds nuw %struct.interval, ptr %5, i32 0, i32 1
  %16 = load i64, ptr %15, align 8
  %17 = sdiv i64 %16, 12
  %18 = trunc i64 %17 to i32
  %19 = load ptr, ptr %6, align 8
  %20 = getelementptr inbounds nuw %struct.tm, ptr %19, i32 0, i32 5
  store i32 %18, ptr %20, align 4
  %21 = getelementptr inbounds nuw %struct.interval, ptr %5, i32 0, i32 1
  %22 = load i64, ptr %21, align 8
  %23 = srem i64 %22, 12
  %24 = trunc i64 %23 to i32
  %25 = load ptr, ptr %6, align 8
  %26 = getelementptr inbounds nuw %struct.tm, ptr %25, i32 0, i32 4
  store i32 %24, ptr %26, align 8
  br label %32

27:                                               ; preds = %4
  %28 = load ptr, ptr %6, align 8
  %29 = getelementptr inbounds nuw %struct.tm, ptr %28, i32 0, i32 5
  store i32 0, ptr %29, align 4
  %30 = load ptr, ptr %6, align 8
  %31 = getelementptr inbounds nuw %struct.tm, ptr %30, i32 0, i32 4
  store i32 0, ptr %31, align 8
  br label %32

32:                                               ; preds = %27, %14
  %33 = getelementptr inbounds nuw %struct.interval, ptr %5, i32 0, i32 0
  %34 = load i64, ptr %33, align 8
  store i64 %34, ptr %8, align 8
  %35 = load i64, ptr %8, align 8
  %36 = sdiv i64 %35, 86400000000
  %37 = trunc i64 %36 to i32
  %38 = load ptr, ptr %6, align 8
  %39 = getelementptr inbounds nuw %struct.tm, ptr %38, i32 0, i32 3
  store i32 %37, ptr %39, align 4
  %40 = load ptr, ptr %6, align 8
  %41 = getelementptr inbounds nuw %struct.tm, ptr %40, i32 0, i32 3
  %42 = load i32, ptr %41, align 4
  %43 = sext i32 %42 to i64
  %44 = mul i64 %43, 86400000000
  %45 = load i64, ptr %8, align 8
  %46 = sub i64 %45, %44
  store i64 %46, ptr %8, align 8
  %47 = load i64, ptr %8, align 8
  %48 = sdiv i64 %47, 3600000000
  %49 = trunc i64 %48 to i32
  %50 = load ptr, ptr %6, align 8
  %51 = getelementptr inbounds nuw %struct.tm, ptr %50, i32 0, i32 2
  store i32 %49, ptr %51, align 8
  %52 = load ptr, ptr %6, align 8
  %53 = getelementptr inbounds nuw %struct.tm, ptr %52, i32 0, i32 2
  %54 = load i32, ptr %53, align 8
  %55 = sext i32 %54 to i64
  %56 = mul i64 %55, 3600000000
  %57 = load i64, ptr %8, align 8
  %58 = sub i64 %57, %56
  store i64 %58, ptr %8, align 8
  %59 = load i64, ptr %8, align 8
  %60 = sdiv i64 %59, 60000000
  %61 = trunc i64 %60 to i32
  %62 = load ptr, ptr %6, align 8
  %63 = getelementptr inbounds nuw %struct.tm, ptr %62, i32 0, i32 1
  store i32 %61, ptr %63, align 4
  %64 = load ptr, ptr %6, align 8
  %65 = getelementptr inbounds nuw %struct.tm, ptr %64, i32 0, i32 1
  %66 = load i32, ptr %65, align 4
  %67 = sext i32 %66 to i64
  %68 = mul i64 %67, 60000000
  %69 = load i64, ptr %8, align 8
  %70 = sub i64 %69, %68
  store i64 %70, ptr %8, align 8
  %71 = load i64, ptr %8, align 8
  %72 = sdiv i64 %71, 1000000
  %73 = trunc i64 %72 to i32
  %74 = load ptr, ptr %6, align 8
  %75 = getelementptr inbounds nuw %struct.tm, ptr %74, i32 0, i32 0
  store i32 %73, ptr %75, align 8
  %76 = load i64, ptr %8, align 8
  %77 = load ptr, ptr %6, align 8
  %78 = getelementptr inbounds nuw %struct.tm, ptr %77, i32 0, i32 0
  %79 = load i32, ptr %78, align 8
  %80 = sext i32 %79 to i64
  %81 = mul i64 %80, 1000000
  %82 = sub i64 %76, %81
  %83 = trunc i64 %82 to i32
  %84 = load ptr, ptr %7, align 8
  store i32 %83, ptr %84, align 4
  call void @llvm.lifetime.end.p0(i64 8, ptr %8) #8
  ret i32 0
}

; Function Attrs: nounwind uwtable
define ptr @PGTYPESinterval_to_asc(ptr noundef %0) #0 {
  %2 = alloca ptr, align 8
  %3 = alloca ptr, align 8
  %4 = alloca %struct.tm, align 8
  %5 = alloca ptr, align 8
  %6 = alloca i32, align 4
  %7 = alloca [129 x i8], align 16
  %8 = alloca i32, align 4
  %9 = alloca i32, align 4
  store ptr %0, ptr %3, align 8
  call void @llvm.lifetime.start.p0(i64 56, ptr %4) #8
  call void @llvm.lifetime.start.p0(i64 8, ptr %5) #8
  store ptr %4, ptr %5, align 8
  call void @llvm.lifetime.start.p0(i64 4, ptr %6) #8
  call void @llvm.lifetime.start.p0(i64 129, ptr %7) #8
  call void @llvm.lifetime.start.p0(i64 4, ptr %8) #8
  store i32 1, ptr %8, align 4
  %10 = load ptr, ptr %3, align 8
  %11 = load ptr, ptr %5, align 8
  %12 = getelementptr inbounds nuw { i64, i64 }, ptr %10, i32 0, i32 0
  %13 = load i64, ptr %12, align 8
  %14 = getelementptr inbounds nuw { i64, i64 }, ptr %10, i32 0, i32 1
  %15 = load i64, ptr %14, align 8
  %16 = call i32 @interval2tm(i64 %13, i64 %15, ptr noundef %11, ptr noundef %6)
  %17 = icmp ne i32 %16, 0
  br i1 %17, label %18, label %20

18:                                               ; preds = %1
  %19 = call ptr @__errno_location() #10
  store i32 330, ptr %19, align 4
  store ptr null, ptr %2, align 8
  store i32 1, ptr %9, align 4
  br label %27

20:                                               ; preds = %1
  %21 = load ptr, ptr %5, align 8
  %22 = load i32, ptr %6, align 4
  %23 = load i32, ptr %8, align 4
  %24 = getelementptr inbounds [129 x i8], ptr %7, i64 0, i64 0
  call void @EncodeInterval(ptr noundef %21, i32 noundef %22, i32 noundef %23, ptr noundef %24)
  %25 = getelementptr inbounds [129 x i8], ptr %7, i64 0, i64 0
  %26 = call ptr @pgtypes_strdup(ptr noundef %25)
  store ptr %26, ptr %2, align 8
  store i32 1, ptr %9, align 4
  br label %27

27:                                               ; preds = %20, %18
  call void @llvm.lifetime.end.p0(i64 4, ptr %8) #8
  call void @llvm.lifetime.end.p0(i64 129, ptr %7) #8
  call void @llvm.lifetime.end.p0(i64 4, ptr %6) #8
  call void @llvm.lifetime.end.p0(i64 8, ptr %5) #8
  call void @llvm.lifetime.end.p0(i64 56, ptr %4) #8
  %28 = load ptr, ptr %2, align 8
  ret ptr %28
}