; Function Attrs: nounwind uwtable
define ptr @PGTYPESinterval_to_asc(ptr noundef readonly captures(none) %0) local_unnamed_addr #0 {
  %2 = alloca %struct.tm, align 8
  %3 = alloca [129 x i8], align 16
  call void @llvm.lifetime.start.p0(i64 56, ptr nonnull %2) #13
  call void @llvm.lifetime.start.p0(i64 129, ptr nonnull %3) #13
  %4 = load i64, ptr %0, align 8
  %5 = getelementptr inbounds nuw i8, ptr %0, i64 8
  %6 = load i64, ptr %5, align 8
  %.not.i = icmp eq i64 %6, 0
  br i1 %.not.i, label %interval2tm.exit, label %7

7:                                                ; preds = %1
  %8 = sdiv i64 %6, 12
  %9 = trunc i64 %8 to i32
  %10 = srem i64 %6, 12
  %11 = trunc nsw i64 %10 to i32
  br label %interval2tm.exit

interval2tm.exit:                                 ; preds = %1, %7
  %.sink27.i = phi i32 [ %9, %7 ], [ 0, %1 ]
  %.sink.i = phi i32 [ %11, %7 ], [ 0, %1 ]
  %12 = getelementptr inbounds nuw i8, ptr %2, i64 20
  store i32 %.sink27.i, ptr %12, align 4
  %13 = getelementptr inbounds nuw i8, ptr %2, i64 16
  store i32 %.sink.i, ptr %13, align 8
  %14 = sdiv i64 %4, 86400000000
  %15 = trunc nsw i64 %14 to i32
  %16 = getelementptr inbounds nuw i8, ptr %2, i64 12
  store i32 %15, ptr %16, align 4
  %.neg.i = mul nsw i64 %14, -86400000000
  %17 = add i64 %.neg.i, %4
  %18 = sdiv i64 %17, 3600000000
  %19 = trunc i64 %18 to i32
  %20 = getelementptr inbounds nuw i8, ptr %2, i64 8
  store i32 %19, ptr %20, align 8
  %sext.i = shl i64 %18, 32
  %21 = ashr exact i64 %sext.i, 32
  %.neg22.i = mul nsw i64 %21, -3600000000
  %22 = add i64 %.neg22.i, %17
  %23 = sdiv i64 %22, 60000000
  %24 = trunc i64 %23 to i32
  %25 = getelementptr inbounds nuw i8, ptr %2, i64 4
  store i32 %24, ptr %25, align 4
  %sext23.i = shl i64 %23, 32
  %26 = ashr exact i64 %sext23.i, 32
  %.neg24.i = mul nsw i64 %26, -60000000
  %27 = add i64 %.neg24.i, %22
  %28 = sdiv i64 %27, 1000000
  %29 = trunc i64 %28 to i32
  store i32 %29, ptr %2, align 8
  %.neg26.i = mul i64 %28, 4293967296
  %30 = add i64 %.neg26.i, %27
  %31 = trunc i64 %30 to i32
  call void @EncodeInterval(ptr noundef nonnull %2, i32 noundef %31, i32 noundef 1, ptr noundef nonnull %3)
  %32 = call ptr @pgtypes_strdup(ptr noundef nonnull %3) #13
  call void @llvm.lifetime.end.p0(i64 129, ptr nonnull %3) #13
  call void @llvm.lifetime.end.p0(i64 56, ptr nonnull %2) #13
  ret ptr %32
}